target datalayout = "e-m:e-p270:32:32-p271:32:32-p272:64:64-i64:64-i128:128-f80:128-n8:16:32:64-S128"
target triple = "x86_64-pc-linux-gnu"

%struct.redisObject = type { i32, i32, ptr }
%struct.RedisModuleIO = type { i64, ptr, ptr, i32, ptr, ptr, i32, ptr }
%struct.moduleValue = type { ptr, ptr }
%struct.RedisModuleType = type { i64, ptr, ptr, ptr, ptr, ptr, ptr, ptr, ptr, ptr, ptr, ptr, ptr, ptr, ptr, ptr, ptr, ptr, ptr, i32, [10 x i8] }

; Function Attrs: nounwind uwtable
define dso_local i32 @rewriteModuleObject(ptr noundef %0, ptr noundef %1, ptr noundef %2, i32 noundef %3) #0 {
  %5 = alloca ptr, align 8
  %6 = alloca ptr, align 8
  %7 = alloca ptr, align 8
  %8 = alloca i32, align 4
  %9 = alloca %struct.RedisModuleIO, align 8
  %10 = alloca ptr, align 8
  %11 = alloca ptr, align 8
  store ptr %0, ptr %5, align 8, !tbaa !173
  store ptr %1, ptr %6, align 8, !tbaa !132
  store ptr %2, ptr %7, align 8, !tbaa !132
  store i32 %3, ptr %8, align 4, !tbaa !22
  call void @llvm.lifetime.start.p0(i64 64, ptr %9) #12
  call void @llvm.lifetime.start.p0(i64 8, ptr %10) #12
  %12 = load ptr, ptr %7, align 8, !tbaa !132
  %13 = getelementptr inbounds nuw %struct.redisObject, ptr %12, i32 0, i32 2
  %14 = load ptr, ptr %13, align 8, !tbaa !134
  store ptr %14, ptr %10, align 8, !tbaa !238
  call void @llvm.lifetime.start.p0(i64 8, ptr %11) #12
  %15 = load ptr, ptr %10, align 8, !tbaa !238
  %16 = getelementptr inbounds nuw %struct.moduleValue, ptr %15, i32 0, i32 0
  %17 = load ptr, ptr %16, align 8, !tbaa !240
  store ptr %17, ptr %11, align 8, !tbaa !243
  br label %18

18:                                               ; preds = %4
  %19 = load ptr, ptr %5, align 8, !tbaa !173
  %20 = getelementptr inbounds nuw %struct.RedisModuleIO, ptr %9, i32 0, i32 1
  store ptr %19, ptr %20, align 8, !tbaa !244
  %21 = load ptr, ptr %11, align 8, !tbaa !243
  %22 = getelementptr inbounds nuw %struct.RedisModuleIO, ptr %9, i32 0, i32 2
  store ptr %21, ptr %22, align 8, !tbaa !247
  %23 = getelementptr inbounds nuw %struct.RedisModuleIO, ptr %9, i32 0, i32 0
  store i64 0, ptr %23, align 8, !tbaa !248
  %24 = getelementptr inbounds nuw %struct.RedisModuleIO, ptr %9, i32 0, i32 3
  store i32 0, ptr %24, align 8, !tbaa !249
  %25 = load ptr, ptr %6, align 8, !tbaa !132
  %26 = getelementptr inbounds nuw %struct.RedisModuleIO, ptr %9, i32 0, i32 5
  store ptr %25, ptr %26, align 8, !tbaa !250
  %27 = load i32, ptr %8, align 4, !tbaa !22
  %28 = getelementptr inbounds nuw %struct.RedisModuleIO, ptr %9, i32 0, i32 6
  store i32 %27, ptr %28, align 8, !tbaa !251
  %29 = getelementptr inbounds nuw %struct.RedisModuleIO, ptr %9, i32 0, i32 4
  store ptr null, ptr %29, align 8, !tbaa !252
  %30 = getelementptr inbounds nuw %struct.RedisModuleIO, ptr %9, i32 0, i32 7
  store ptr null, ptr %30, align 8, !tbaa !253
  br label %31

31:                                               ; preds = %18
  br label %32

32:                                               ; preds = %31
  %33 = load ptr, ptr %11, align 8, !tbaa !243
  %34 = getelementptr inbounds nuw %struct.RedisModuleType, ptr %33, i32 0, i32 4
  %35 = load ptr, ptr %34, align 8, !tbaa !254
  %36 = load ptr, ptr %6, align 8, !tbaa !132
  %37 = load ptr, ptr %10, align 8, !tbaa !238
  %38 = getelementptr inbounds nuw %struct.moduleValue, ptr %37, i32 0, i32 1
  %39 = load ptr, ptr %38, align 8, !tbaa !257
  call void %35(ptr noundef %9, ptr noundef %36, ptr noundef %39)
  %40 = getelementptr inbounds nuw %struct.RedisModuleIO, ptr %9, i32 0, i32 4
  %41 = load ptr, ptr %40, align 8, !tbaa !252
  %42 = icmp ne ptr %41, null
  br i1 %42, label %43, label %48

43:                                               ; preds = %32
  %44 = getelementptr inbounds nuw %struct.RedisModuleIO, ptr %9, i32 0, i32 4
  %45 = load ptr, ptr %44, align 8, !tbaa !252
  call void @moduleFreeContext(ptr noundef %45)
  %46 = getelementptr inbounds nuw %struct.RedisModuleIO, ptr %9, i32 0, i32 4
  %47 = load ptr, ptr %46, align 8, !tbaa !252
  call void @zfree(ptr noundef %47)
  br label %48

48:                                               ; preds = %43, %32
  %49 = getelementptr inbounds nuw %struct.RedisModuleIO, ptr %9, i32 0, i32 3
  %50 = load i32, ptr %49, align 8, !tbaa !249
  %51 = icmp ne i32 %50, 0
  %52 = select i1 %51, i32 0, i32 1
  call void @llvm.lifetime.end.p0(i64 8, ptr %11) #12
  call void @llvm.lifetime.end.p0(i64 8, ptr %10) #12
  call void @llvm.lifetime.end.p0(i64 64, ptr %9) #12
  ret i32 %52
}