; Function Attrs: nounwind uwtable
define dso_local range(i32 0, 2) i32 @rewriteModuleObject(ptr noundef %0, ptr noundef %1, ptr noundef readonly captures(none) %2, i32 noundef %3) local_unnamed_addr #0 {
  %5 = alloca %struct.RedisModuleIO, align 8
  call void @llvm.lifetime.start.p0(i64 64, ptr nonnull %5) #20
  %6 = getelementptr inbounds nuw i8, ptr %2, i64 8
  %7 = load ptr, ptr %6, align 8, !tbaa !118
  %8 = load ptr, ptr %7, align 8, !tbaa !202
  %9 = getelementptr inbounds nuw i8, ptr %5, i64 8
  store ptr %0, ptr %9, align 8, !tbaa !205
  %10 = getelementptr inbounds nuw i8, ptr %5, i64 16
  store ptr %8, ptr %10, align 8, !tbaa !209
  store i64 0, ptr %5, align 8, !tbaa !210
  %11 = getelementptr inbounds nuw i8, ptr %5, i64 24
  store i32 0, ptr %11, align 8, !tbaa !211
  %12 = getelementptr inbounds nuw i8, ptr %5, i64 40
  store ptr %1, ptr %12, align 8, !tbaa !212
  %13 = getelementptr inbounds nuw i8, ptr %5, i64 48
  store i32 %3, ptr %13, align 8, !tbaa !213
  %14 = getelementptr inbounds nuw i8, ptr %5, i64 32
  store ptr null, ptr %14, align 8, !tbaa !214
  %15 = getelementptr inbounds nuw i8, ptr %5, i64 56
  store ptr null, ptr %15, align 8, !tbaa !215
  %16 = getelementptr inbounds nuw i8, ptr %8, i64 32
  %17 = load ptr, ptr %16, align 8, !tbaa !216
  %18 = getelementptr inbounds nuw i8, ptr %7, i64 8
  %19 = load ptr, ptr %18, align 8, !tbaa !219
  call void %17(ptr noundef nonnull %5, ptr noundef %1, ptr noundef %19) #20
  %20 = load ptr, ptr %14, align 8, !tbaa !214
  %.not = icmp eq ptr %20, null
  br i1 %.not, label %23, label %21

21:                                               ; preds = %4
  call void @moduleFreeContext(ptr noundef nonnull %20) #20
  %22 = load ptr, ptr %14, align 8, !tbaa !214
  call void @zfree(ptr noundef %22) #20
  br label %23

23:                                               ; preds = %21, %4
  %24 = load i32, ptr %11, align 8, !tbaa !211
  %.not8 = icmp eq i32 %24, 0
  %25 = zext i1 %.not8 to i32
  call void @llvm.lifetime.end.p0(i64 64, ptr nonnull %5) #20
  ret i32 %25
}